ccopy_reg
_reconstructor
p0
(csklearn.pipeline
Pipeline
p1
c__builtin__
object
p2
Ntp3
Rp4
(dp5
S'_sklearn_version'
p6
S'0.18'
p7
sS'steps'
p8
(lp9
(S'scaler'
p10
g0
(csklearn.preprocessing.data
MinMaxScaler
p11
g2
Ntp12
Rp13
(dp14
S'copy'
p15
I01
sg6
g7
sS'feature_range'
p16
(I0
I1
tp17
sbtp18
a(S'selector'
p19
g0
(csklearn.feature_selection.univariate_selection
SelectKBest
p20
g2
Ntp21
Rp22
(dp23
S'k'
p24
I5
sg6
g7
sS'score_func'
p25
csklearn.feature_selection.univariate_selection
chi2
p26
sbtp27
a(S'dimens_red'
p28
g0
(csklearn.decomposition.pca
PCA
p29
g2
Ntp30
Rp31
(dp32
S'svd_solver'
p33
S'auto'
p34
sS'iterated_power'
p35
g34
sS'random_state'
p36
Nsg6
g7
sS'whiten'
p37
I00
sS'tol'
p38
F0.0
sg15
I01
sS'n_components'
p39
I2
sbtp40
a(S'classify'
p41
g0
(csklearn.tree.tree
DecisionTreeClassifier
p42
g2
Ntp43
Rp44
(dp45
S'presort'
p46
I00
sS'splitter'
p47
S'best'
p48
sS'tree_'
p49
NsS'n_features_'
p50
NsS'n_outputs_'
p51
NsS'n_classes_'
p52
NsS'min_impurity_split'
p53
F1e-07
sS'classes_'
p54
NsS'max_features_'
p55
NsS'min_samples_leaf'
p56
I1
sS'min_samples_split'
p57
I2
sg36
NsS'criterion'
p58
S'gini'
p59
sS'min_weight_fraction_leaf'
p60
F0.0
sS'max_leaf_nodes'
p61
NsS'max_features'
p62
g34
sg6
g7
sS'max_depth'
p63
NsS'class_weight'
p64
Nsbtp65
asb.